; Function Attrs: mustprogress uwtable
define hidden void @_ZN5osgeo4proj2cs20CoordinateSystemAxisC2Ev(ptr noundef nonnull align 8 dereferenceable(56) %0) unnamed_addr #0 align 2 personality ptr @__gxx_personality_v0 {
  tail call void @_ZN5osgeo4proj6common16IdentifiedObjectC2Ev(ptr noundef nonnull align 8 dereferenceable(40) %0)
  %2 = getelementptr inbounds nuw i8, ptr %0, i64 40
  store ptr getelementptr inbounds nuw inrange(-16, 48) (i8, ptr @_ZTVN5osgeo4proj2cs20CoordinateSystemAxisE, i64 16), ptr %0, align 8, !tbaa !3
  %3 = getelementptr inbounds nuw i8, ptr %0, i64 16
  store ptr getelementptr inbounds nuw inrange(-16, 24) (i8, ptr @_ZTVN5osgeo4proj2cs20CoordinateSystemAxisE, i64 80), ptr %3, align 8, !tbaa !3
  %4 = getelementptr inbounds nuw i8, ptr %0, i64 24
  store ptr getelementptr inbounds nuw inrange(-16, 24) (i8, ptr @_ZTVN5osgeo4proj2cs20CoordinateSystemAxisE, i64 120), ptr %4, align 8, !tbaa !3
  store ptr getelementptr inbounds nuw inrange(-16, 24) (i8, ptr @_ZTVN5osgeo4proj2cs20CoordinateSystemAxisE, i64 160), ptr %2, align 8, !tbaa !3
  tail call void @llvm.experimental.noalias.scope.decl(metadata !38)
  %5 = invoke noalias noundef nonnull dereferenceable(152) ptr @_Znwm(i64 noundef 152) #31
          to label %.noexc unwind label %10

.noexc:                                           ; preds = %1
  tail call void @llvm.memset.p0.i64(ptr noundef nonnull align 16 dereferenceable(152) %5, i8 0, i64 152, i1 false), !noalias !38
  invoke void @_ZN5osgeo4proj2cs20CoordinateSystemAxis7PrivateC2Ev(ptr noundef nonnull align 8 dereferenceable(152) %5)
          to label %8 unwind label %6, !noalias !38

6:                                                ; preds = %.noexc
  %7 = landingpad { ptr, i32 }
          cleanup
  tail call void @_ZdlPvm(ptr noundef nonnull %5, i64 noundef 152) #32, !noalias !38
  br label %.body

8:                                                ; preds = %.noexc
  %9 = getelementptr inbounds nuw i8, ptr %0, i64 48
  store ptr %5, ptr %9, align 8, !tbaa !41, !alias.scope !38
  ret void

10:                                               ; preds = %1
  %11 = landingpad { ptr, i32 }
          cleanup
  br label %.body

.body:                                            ; preds = %6, %10
  %eh.lpad-body = phi { ptr, i32 } [ %11, %10 ], [ %7, %6 ]
  tail call void @_ZN5osgeo4proj2io15IJSONExportableD2Ev(ptr noundef nonnull align 8 dereferenceable(8) %2) #33
  tail call void @_ZN5osgeo4proj6common16IdentifiedObjectD2Ev(ptr noundef nonnull align 8 dereferenceable(40) %0) #33
  resume { ptr, i32 } %eh.lpad-body
}